; Function Attrs: mustprogress nounwind uwtable
define dso_local noundef zeroext i1 @_ZNK4llvm6object15XCOFFObjectFile13isSectionTextENS0_11DataRefImplE(ptr noundef nonnull align 8 dereferenceable(96) %0, i64 %1) unnamed_addr #0 align 2 {
  %3 = load ptr, ptr %0, align 8
  %4 = getelementptr inbounds i8, ptr %3, i64 64
  %5 = load ptr, ptr %4, align 8
  %6 = tail call noundef zeroext i1 %5(ptr noundef nonnull align 8 dereferenceable(96) %0) #23
  %7 = inttoptr i64 %1 to ptr
  %.v.i = select i1 %6, i64 64, i64 36
  %8 = getelementptr inbounds nuw i8, ptr %7, i64 %.v.i
  call void @llvm.assume(i1 true) [ "align"(ptr %8, i64 1) ]
  %.0.copyload.i.i.i.i = load i32, ptr %8, align 1
  %9 = and i32 %.0.copyload.i.i.i.i, 536870912
  %10 = icmp ne i32 %9, 0
  ret i1 %10
}